; Function Attrs: mustprogress nounwind uwtable
define void @_ZN10OpenSubdiv6v3_6_03Far11PtexIndicesD2Ev(ptr nocapture noundef nonnull readonly align 8 dereferenceable(24) %0) unnamed_addr #2 align 2 personality ptr @__gxx_personality_v0 {
  %2 = load ptr, ptr %0, align 8
  %.not.i.i.i = icmp eq ptr %2, null
  br i1 %.not.i.i.i, label %_ZNSt6vectorIiSaIiEED2Ev.exit, label %3

3:                                                ; preds = %1
  %4 = getelementptr inbounds nuw i8, ptr %0, i64 16
  %5 = load ptr, ptr %4, align 8
  %6 = ptrtoint ptr %5 to i64
  %7 = ptrtoint ptr %2 to i64
  %8 = sub i64 %6, %7
  tail call void @_ZdlPvm(ptr noundef nonnull %2, i64 noundef %8) #11
  br label %_ZNSt6vectorIiSaIiEED2Ev.exit

_ZNSt6vectorIiSaIiEED2Ev.exit:                    ; preds = %1, %3
  ret void
}